; ModuleID = 'source-C-CXX/52/623.c'
source_filename = "source-C-CXX/52/623.c"
target datalayout = "e-m:e-p270:32:32-p271:32:32-p272:64:64-i64:64-f80:128-n8:16:32:64-S128"
target triple = "x86_64-pc-linux-gnu"

@.str = private unnamed_addr constant [3 x i8] c"%d\00", align 1
@.str.1 = private unnamed_addr constant [4 x i8] c",%d\00", align 1

; Function Attrs: nofree nounwind sspstrong uwtable
define dso_local void @main() local_unnamed_addr #0 {
  %1 = alloca [300 x i32], align 16
  %2 = alloca i32, align 4
  %3 = alloca i32, align 4
  %4 = bitcast [300 x i32]* %1 to i8*
  call void @llvm.lifetime.start.p0i8(i64 1200, i8* nonnull %4) #3
  %5 = bitcast i32* %2 to i8*
  call void @llvm.lifetime.start.p0i8(i64 4, i8* nonnull %5) #3
  %6 = getelementptr inbounds [300 x i32], [300 x i32]* %1, i64 0, i64 0
  %7 = bitcast i32* %3 to i8*
  call void @llvm.lifetime.start.p0i8(i64 4, i8* nonnull %7) #3
  %8 = call i32 (i8*, ...) @__isoc99_scanf(i8* getelementptr inbounds ([3 x i8], [3 x i8]* @.str, i64 0, i64 0), i32* nonnull %2)
  %9 = call i32 (i8*, ...) @__isoc99_scanf(i8* getelementptr inbounds ([3 x i8], [3 x i8]* @.str, i64 0, i64 0), i32* nonnull %3)
  %10 = load i32, i32* %3, align 4, !tbaa !5
  store i32 %10, i32* %6, align 16, !tbaa !5
  %11 = call i32 (i8*, ...) @printf(i8* nonnull dereferenceable(1) getelementptr inbounds ([3 x i8], [3 x i8]* @.str, i64 0, i64 0), i32 %10)
  %12 = load i32, i32* %2, align 4, !tbaa !5
  %13 = icmp slt i32 %12, 2
  br i1 %13, label %38, label %14

14:                                               ; preds = %0, %33
  %15 = phi i32 [ %34, %33 ], [ 1, %0 ]
  %16 = phi i32 [ %35, %33 ], [ 2, %0 ]
  %17 = call i32 (i8*, ...) @__isoc99_scanf(i8* getelementptr inbounds ([3 x i8], [3 x i8]* @.str, i64 0, i64 0), i32* nonnull %3)
  %18 = sext i32 %15 to i64
  %19 = getelementptr inbounds [300 x i32], [300 x i32]* %1, i64 0, i64 %18
  %20 = load i32, i32* %3, align 4
  %21 = icmp sgt i32 %15, 0
  br i1 %21, label %22, label %29

22:                                               ; preds = %14, %26
  %23 = phi i32* [ %27, %26 ], [ %6, %14 ]
  %24 = load i32, i32* %23, align 4, !tbaa !5
  %25 = icmp eq i32 %24, %20
  br i1 %25, label %33, label %26

26:                                               ; preds = %22
  %27 = getelementptr inbounds i32, i32* %23, i64 1
  %28 = icmp ult i32* %27, %19
  br i1 %28, label %22, label %29, !llvm.loop !9

29:                                               ; preds = %26, %14
  %30 = phi i32* [ %6, %14 ], [ %27, %26 ]
  store i32 %20, i32* %30, align 4, !tbaa !5
  %31 = add nsw i32 %15, 1
  %32 = call i32 (i8*, ...) @printf(i8* nonnull dereferenceable(1) getelementptr inbounds ([4 x i8], [4 x i8]* @.str.1, i64 0, i64 0), i32 %20)
  br label %33

33:                                               ; preds = %22, %29
  %34 = phi i32 [ %31, %29 ], [ %15, %22 ]
  %35 = add nuw nsw i32 %16, 1
  %36 = load i32, i32* %2, align 4, !tbaa !5
  %37 = icmp slt i32 %16, %36
  br i1 %37, label %14, label %38, !llvm.loop !11

38:                                               ; preds = %33, %0
  call void @llvm.lifetime.end.p0i8(i64 4, i8* nonnull %7) #3
  call void @llvm.lifetime.end.p0i8(i64 4, i8* nonnull %5) #3
  call void @llvm.lifetime.end.p0i8(i64 1200, i8* nonnull %4) #3
  ret void
}

; Function Attrs: argmemonly mustprogress nofree nosync nounwind willreturn
declare void @llvm.lifetime.start.p0i8(i64 immarg, i8* nocapture) #1

; Function Attrs: nofree nounwind
declare noundef i32 @__isoc99_scanf(i8* nocapture noundef readonly, ...) local_unnamed_addr #2

; Function Attrs: nofree nounwind
declare noundef i32 @printf(i8* nocapture noundef readonly, ...) local_unnamed_addr #2

; Function Attrs: argmemonly mustprogress nofree nosync nounwind willreturn
declare void @llvm.lifetime.end.p0i8(i64 immarg, i8* nocapture) #1


!llvm.module.flags = !{!0, !1, !2, !3}
!llvm.ident = !{!4}

!0 = !{i32 1, !"wchar_size", i32 4}
!1 = !{i32 7, !"PIC Level", i32 2}
!2 = !{i32 7, !"PIE Level", i32 2}
!3 = !{i32 7, !"uwtable", i32 1}
!4 = !{!"clang version 13.0.0"}
!5 = !{!6, !6, i64 0}
!6 = !{!"int", !7, i64 0}
!7 = !{!"omnipotent char", !8, i64 0}
!8 = !{!"Simple C/C++ TBAA"}
!9 = distinct !{!9, !10}
!10 = !{!"llvm.loop.mustprogress"}
!11 = distinct !{!11, !10}
